target datalayout = "e-m:e-p270:32:32-p271:32:32-p272:64:64-i64:64-i128:128-f80:128-n8:16:32:64-S128"
target triple = "x86_64-pc-linux-gnu"

@stderr = external global ptr, align 8
@.str = private unnamed_addr constant [62 x i8] c"TRAJNG ERROR: Could not allocate memory of size %lu at %s:%d\0A\00", align 1

; Function Attrs: nounwind uwtable
define ptr @Ptngc_warnmalloc_x(i64 noundef %0, ptr noundef %1, i32 noundef %2) #0 {
  %4 = alloca i64, align 8
  %5 = alloca ptr, align 8
  %6 = alloca i32, align 4
  %7 = alloca ptr, align 8
  store i64 %0, ptr %4, align 8
  store ptr %1, ptr %5, align 8
  store i32 %2, ptr %6, align 4
  %8 = load i64, ptr %4, align 8
  %9 = call noalias ptr @malloc(i64 noundef %8) #5
  store ptr %9, ptr %7, align 8
  %10 = load ptr, ptr %7, align 8
  %11 = icmp ne ptr %10, null
  br i1 %11, label %18, label %12

12:                                               ; preds = %3
  %13 = load ptr, ptr @stderr, align 8
  %14 = load i64, ptr %4, align 8
  %15 = load ptr, ptr %5, align 8
  %16 = load i32, ptr %6, align 4
  %17 = call i32 (ptr, ptr, ...) @fprintf(ptr noundef %13, ptr noundef @.str, i64 noundef %14, ptr noundef %15, i32 noundef %16) #6
  call void @exit(i32 noundef 1) #7
  unreachable

18:                                               ; preds = %3
  %19 = load ptr, ptr %7, align 8
  ret ptr %19
}

; Function Attrs: nounwind allocsize(0)
declare noalias ptr @malloc(i64 noundef) #1

; Function Attrs: nounwind
declare i32 @fprintf(ptr noundef, ptr noundef, ...) #2

; Function Attrs: noreturn nounwind
declare void @exit(i32 noundef) #3

; Function Attrs: nounwind uwtable
define ptr @Ptngc_warnrealloc_x(ptr noundef %0, i64 noundef %1, ptr noundef %2, i32 noundef %3) #0 {
  %5 = alloca ptr, align 8
  %6 = alloca i64, align 8
  %7 = alloca ptr, align 8
  %8 = alloca i32, align 4
  %9 = alloca ptr, align 8
  store ptr %0, ptr %5, align 8
  store i64 %1, ptr %6, align 8
  store ptr %2, ptr %7, align 8
  store i32 %3, ptr %8, align 4
  %10 = load ptr, ptr %5, align 8
  %11 = load i64, ptr %6, align 8
  %12 = call ptr @realloc(ptr noundef %10, i64 noundef %11) #8
  store ptr %12, ptr %9, align 8
  %13 = load ptr, ptr %9, align 8
  %14 = icmp ne ptr %13, null
  br i1 %14, label %21, label %15

15:                                               ; preds = %4
  %16 = load ptr, ptr @stderr, align 8
  %17 = load i64, ptr %6, align 8
  %18 = load ptr, ptr %7, align 8
  %19 = load i32, ptr %8, align 4
  %20 = call i32 (ptr, ptr, ...) @fprintf(ptr noundef %16, ptr noundef @.str, i64 noundef %17, ptr noundef %18, i32 noundef %19) #6
  call void @exit(i32 noundef 1) #7
  unreachable

21:                                               ; preds = %4
  %22 = load ptr, ptr %9, align 8
  ret ptr %22
}

; Function Attrs: nounwind allocsize(1)
declare ptr @realloc(ptr noundef, i64 noundef) #4


!llvm.module.flags = !{!0, !1, !2, !3}

!0 = !{i32 1, !"wchar_size", i32 4}
!1 = !{i32 8, !"PIC Level", i32 2}
!2 = !{i32 7, !"uwtable", i32 2}
!3 = !{i32 7, !"frame-pointer", i32 2}
