; ModuleID = 'bench/gromacs/original/warnmalloc.c.ll'
source_filename = "bench/gromacs/original/warnmalloc.c.ll"
target datalayout = "e-m:e-p270:32:32-p271:32:32-p272:64:64-i64:64-i128:128-f80:128-n8:16:32:64-S128"
target triple = "x86_64-pc-linux-gnu"

@stderr = external local_unnamed_addr global ptr, align 8
@.str = private unnamed_addr constant [62 x i8] c"TRAJNG ERROR: Could not allocate memory of size %lu at %s:%d\0A\00", align 1

; Function Attrs: nounwind uwtable
define noalias noundef ptr @Ptngc_warnmalloc_x(i64 noundef %0, ptr noundef %1, i32 noundef %2) local_unnamed_addr #0 {
  %4 = tail call noalias ptr @malloc(i64 noundef %0) #5
  %.not = icmp eq ptr %4, null
  br i1 %.not, label %5, label %8

5:                                                ; preds = %3
  %6 = load ptr, ptr @stderr, align 8
  %7 = tail call i32 (ptr, ptr, ...) @fprintf(ptr noundef %6, ptr noundef nonnull @.str, i64 noundef %0, ptr noundef %1, i32 noundef %2) #6
  tail call void @exit(i32 noundef 1) #7
  unreachable

8:                                                ; preds = %3
  ret ptr %4
}

; Function Attrs: mustprogress nofree nounwind willreturn allockind("alloc,uninitialized") allocsize(0) memory(inaccessiblemem: readwrite)
declare noalias noundef ptr @malloc(i64 noundef) local_unnamed_addr #1

; Function Attrs: nofree nounwind
declare noundef i32 @fprintf(ptr nocapture noundef, ptr nocapture noundef readonly, ...) local_unnamed_addr #2

; Function Attrs: noreturn nounwind
declare void @exit(i32 noundef) local_unnamed_addr #3

; Function Attrs: nounwind uwtable
define noalias noundef ptr @Ptngc_warnrealloc_x(ptr nocapture noundef %0, i64 noundef %1, ptr noundef %2, i32 noundef %3) local_unnamed_addr #0 {
  %5 = tail call ptr @realloc(ptr noundef %0, i64 noundef %1) #8
  %.not = icmp eq ptr %5, null
  br i1 %.not, label %6, label %9

6:                                                ; preds = %4
  %7 = load ptr, ptr @stderr, align 8
  %8 = tail call i32 (ptr, ptr, ...) @fprintf(ptr noundef %7, ptr noundef nonnull @.str, i64 noundef %1, ptr noundef %2, i32 noundef %3) #6
  tail call void @exit(i32 noundef 1) #7
  unreachable

9:                                                ; preds = %4
  ret ptr %5
}

; Function Attrs: mustprogress nounwind willreturn allockind("realloc") allocsize(1) memory(argmem: readwrite, inaccessiblemem: readwrite)
declare noalias noundef ptr @realloc(ptr allocptr nocapture noundef, i64 noundef) local_unnamed_addr #4


!llvm.module.flags = !{!0, !1, !2, !3}

!0 = !{i32 1, !"wchar_size", i32 4}
!1 = !{i32 8, !"PIC Level", i32 2}
!2 = !{i32 7, !"uwtable", i32 2}
!3 = !{i32 7, !"frame-pointer", i32 2}
